#include <math.h>
#include <stdio.h>
#include <stdlib.h>
#include <string.h>

int main()
{
  int jud[200],num[30000],n,i,j,sum,res[200];
  scanf("%d",&n);
  sum=0;
  for(i=1;i<=100;i++)
   jud[i]=0;
  for(i=1;i<=n;i++)
   {
    scanf("%d",&num[i]);
    if(jud[num[i]]==0) 
     {
       sum++;
       res[sum]=num[i];
       jud[num[i]]=1;
      }
    }
  for(i=1;i<sum;i++)
   printf("%d ",res[i]);
  printf("%d",res[sum]);
  return 0;
}
       